; Function Attrs: mustprogress nofree norecurse nounwind willreturn uwtable
define void @_ZN9grpc_core14GetDNSResolverEv(ptr dead_on_unwind noalias writable writeonly sret(%"class.std::shared_ptr") align 8 captures(none) initializes((0, 16)) %0) local_unnamed_addr #4 personality ptr @__gxx_personality_v0 {
  %2 = load ptr, ptr @_ZN9grpc_core12_GLOBAL__N_114g_dns_resolverE, align 8, !tbaa !3
  store ptr %2, ptr %0, align 8, !tbaa !3
  %3 = getelementptr inbounds nuw i8, ptr %0, i64 8
  %4 = load ptr, ptr getelementptr inbounds nuw (i8, ptr @_ZN9grpc_core12_GLOBAL__N_114g_dns_resolverE, i64 8), align 8, !tbaa !11
  store ptr %4, ptr %3, align 8, !tbaa !11
  %.not.i.i.i = icmp eq ptr %4, null
  br i1 %.not.i.i.i, label %_ZNSt10shared_ptrIN9grpc_core11DNSResolverEEC2ERKS2_.exit, label %5

5:                                                ; preds = %1
  %6 = getelementptr inbounds nuw i8, ptr %4, i64 8
  %7 = load i8, ptr @__libc_single_threaded, align 1, !tbaa !19
  %.not.i.i.i.i = icmp eq i8 %7, 0
  br i1 %.not.i.i.i.i, label %11, label %8

8:                                                ; preds = %5
  %9 = load i32, ptr %6, align 4, !tbaa !20
  %10 = add nsw i32 %9, 1
  store i32 %10, ptr %6, align 4, !tbaa !20
  br label %_ZNSt10shared_ptrIN9grpc_core11DNSResolverEEC2ERKS2_.exit

11:                                               ; preds = %5
  %12 = atomicrmw volatile add ptr %6, i32 1 acq_rel, align 4
  br label %_ZNSt10shared_ptrIN9grpc_core11DNSResolverEEC2ERKS2_.exit

_ZNSt10shared_ptrIN9grpc_core11DNSResolverEEC2ERKS2_.exit: ; preds = %1, %8, %11
  ret void
}